; Function Attrs: null_pointer_is_valid sspstrong uwtable
define internal void @ancp_stats_tree_init(ptr noundef %0) #0 {
  %2 = tail call i32 @stats_tree_create_node(ptr noundef %0, ptr noundef nonnull @.str.216, i32 noundef 0, i32 noundef 0, i1 noundef zeroext true)
  store i32 %2, ptr @st_node_packets, align 4
  %3 = tail call i32 @stats_tree_create_pivot(ptr noundef %0, ptr noundef nonnull @.str.217, i32 noundef %2)
  store i32 %3, ptr @st_node_packet_types, align 4
  %4 = load i32, ptr @st_node_packets, align 4
  %5 = tail call i32 @stats_tree_create_node(ptr noundef %0, ptr noundef nonnull @.str.218, i32 noundef %4, i32 noundef 0, i1 noundef zeroext true)
  store i32 %5, ptr @st_node_adj_pack_types, align 4
  ret void
}